target datalayout = "e-m:e-p270:32:32-p271:32:32-p272:64:64-i64:64-i128:128-f80:128-n8:16:32:64-S128"
target triple = "x86_64-pc-linux-gnu"

; Function Attrs: nounwind uwtable
define i32 @nghttp2_check_header_value(ptr noundef %0, i64 noundef %1) #0 {
  %3 = alloca i32, align 4
  %4 = alloca ptr, align 8
  %5 = alloca i64, align 8
  %6 = alloca ptr, align 8
  %7 = alloca i32, align 4
  store ptr %0, ptr %4, align 8, !tbaa !3
  store i64 %1, ptr %5, align 8, !tbaa !12
  call void @llvm.lifetime.start.p0(i64 8, ptr %6) #5
  %8 = load ptr, ptr %4, align 8, !tbaa !3
  %9 = load i64, ptr %5, align 8, !tbaa !12
  %10 = getelementptr inbounds nuw i8, ptr %8, i64 %9
  store ptr %10, ptr %6, align 8, !tbaa !3
  br label %11

11:                                               ; preds = %24, %2
  %12 = load ptr, ptr %4, align 8, !tbaa !3
  %13 = load ptr, ptr %6, align 8, !tbaa !3
  %14 = icmp ne ptr %12, %13
  br i1 %14, label %15, label %27

15:                                               ; preds = %11
  %16 = load ptr, ptr %4, align 8, !tbaa !3
  %17 = load i8, ptr %16, align 1, !tbaa !14
  %18 = zext i8 %17 to i64
  %19 = getelementptr inbounds nuw [256 x i32], ptr @VALID_HD_VALUE_CHARS, i64 0, i64 %18
  %20 = load i32, ptr %19, align 4, !tbaa !10
  %21 = icmp ne i32 %20, 0
  br i1 %21, label %23, label %22

22:                                               ; preds = %15
  store i32 0, ptr %3, align 4
  store i32 1, ptr %7, align 4
  br label %28

23:                                               ; preds = %15
  br label %24

24:                                               ; preds = %23
  %25 = load ptr, ptr %4, align 8, !tbaa !3
  %26 = getelementptr inbounds nuw i8, ptr %25, i32 1
  store ptr %26, ptr %4, align 8, !tbaa !3
  br label %11, !llvm.loop !20

27:                                               ; preds = %11
  store i32 1, ptr %3, align 4
  store i32 1, ptr %7, align 4
  br label %28

28:                                               ; preds = %27, %22
  call void @llvm.lifetime.end.p0(i64 8, ptr %6) #5
  %29 = load i32, ptr %3, align 4
  ret i32 %29
}

; Function Attrs: nounwind uwtable
define i32 @nghttp2_check_header_value_rfc9113(ptr noundef %0, i64 noundef %1) #0 {
  %3 = alloca i32, align 4
  %4 = alloca ptr, align 8
  %5 = alloca i64, align 8
  store ptr %0, ptr %4, align 8, !tbaa !3
  store i64 %1, ptr %5, align 8, !tbaa !12
  %6 = load i64, ptr %5, align 8, !tbaa !12
  %7 = icmp eq i64 %6, 0
  br i1 %7, label %8, label %9

8:                                                ; preds = %2
  store i32 1, ptr %3, align 4
  br label %40

9:                                                ; preds = %2
  %10 = load ptr, ptr %4, align 8, !tbaa !3
  %11 = load i8, ptr %10, align 1, !tbaa !14
  %12 = zext i8 %11 to i32
  %13 = icmp eq i32 %12, 32
  br i1 %13, label %35, label %14

14:                                               ; preds = %9
  %15 = load ptr, ptr %4, align 8, !tbaa !3
  %16 = load i8, ptr %15, align 1, !tbaa !14
  %17 = zext i8 %16 to i32
  %18 = icmp eq i32 %17, 9
  br i1 %18, label %35, label %19

19:                                               ; preds = %14
  %20 = load ptr, ptr %4, align 8, !tbaa !3
  %21 = load i64, ptr %5, align 8, !tbaa !12
  %22 = getelementptr inbounds nuw i8, ptr %20, i64 %21
  %23 = getelementptr inbounds i8, ptr %22, i64 -1
  %24 = load i8, ptr %23, align 1, !tbaa !14
  %25 = zext i8 %24 to i32
  %26 = icmp eq i32 %25, 32
  br i1 %26, label %35, label %27

27:                                               ; preds = %19
  %28 = load ptr, ptr %4, align 8, !tbaa !3
  %29 = load i64, ptr %5, align 8, !tbaa !12
  %30 = getelementptr inbounds nuw i8, ptr %28, i64 %29
  %31 = getelementptr inbounds i8, ptr %30, i64 -1
  %32 = load i8, ptr %31, align 1, !tbaa !14
  %33 = zext i8 %32 to i32
  %34 = icmp eq i32 %33, 9
  br i1 %34, label %35, label %36

35:                                               ; preds = %27, %19, %14, %9
  store i32 0, ptr %3, align 4
  br label %40

36:                                               ; preds = %27
  %37 = load ptr, ptr %4, align 8, !tbaa !3
  %38 = load i64, ptr %5, align 8, !tbaa !12
  %39 = call i32 @nghttp2_check_header_value(ptr noundef %37, i64 noundef %38)
  store i32 %39, ptr %3, align 4
  br label %40

40:                                               ; preds = %36, %35, %8
  %41 = load i32, ptr %3, align 4
  ret i32 %41
}