; Function Attrs: nofree norecurse nosync nounwind memory(argmem: read) uwtable
define range(i32 0, 2) i32 @nghttp2_check_header_value_rfc9113(ptr noundef readonly %0, i64 noundef %1) local_unnamed_addr #8 {
  %3 = icmp eq i64 %1, 0
  br i1 %3, label %nghttp2_check_header_value.exit, label %4

4:                                                ; preds = %2
  %5 = load i8, ptr %0, align 1, !tbaa !3
  switch i8 %5, label %6 [
    i8 32, label %nghttp2_check_header_value.exit
    i8 9, label %nghttp2_check_header_value.exit
  ]

6:                                                ; preds = %4
  %7 = getelementptr inbounds nuw i8, ptr %0, i64 %1
  %8 = getelementptr inbounds i8, ptr %7, i64 -1
  %9 = load i8, ptr %8, align 1, !tbaa !3
  switch i8 %9, label %.lr.ph.i [
    i8 32, label %nghttp2_check_header_value.exit
    i8 9, label %nghttp2_check_header_value.exit
  ]

10:                                               ; preds = %.lr.ph.i
  %11 = getelementptr inbounds nuw i8, ptr %.069.i, i64 1
  %.not.i = icmp eq ptr %11, %7
  br i1 %.not.i, label %nghttp2_check_header_value.exit, label %.lr.ph.i, !llvm.loop !11

.lr.ph.i:                                         ; preds = %6, %10
  %.069.i = phi ptr [ %11, %10 ], [ %0, %6 ]
  %12 = load i8, ptr %.069.i, align 1, !tbaa !3
  %13 = zext i8 %12 to i64
  %14 = getelementptr inbounds nuw [256 x i32], ptr @VALID_HD_VALUE_CHARS, i64 0, i64 %13
  %15 = load i32, ptr %14, align 4, !tbaa !8
  %.not7.i = icmp eq i32 %15, 0
  br i1 %.not7.i, label %nghttp2_check_header_value.exit, label %10

nghttp2_check_header_value.exit:                  ; preds = %.lr.ph.i, %10, %4, %4, %6, %6, %2
  %.0 = phi i32 [ 1, %2 ], [ 0, %6 ], [ 0, %6 ], [ 0, %4 ], [ 0, %4 ], [ 0, %.lr.ph.i ], [ 1, %10 ]
  ret i32 %.0
}